; Function Attrs: mustprogress uwtable
define hidden void @_ZN6cvtest3ocl4perf29checkDeviceMaxMemoryAllocSizeERKN2cv5Size_IiEEii(ptr noundef nonnull readonly align 4 captures(none) dereferenceable(8) %0, i32 noundef %1, i32 noundef %2) local_unnamed_addr #4 personality ptr @__gxx_personality_v0 {
  %4 = alloca %"class.std::__cxx11::basic_string", align 8
  %5 = alloca %"class.std::allocator", align 1
  %6 = icmp sgt i32 %2, 0
  br i1 %6, label %20, label %7

7:                                                ; preds = %3
  call void @llvm.lifetime.start.p0(i64 32, ptr nonnull %4) #11
  call void @llvm.lifetime.start.p0(i64 1, ptr nonnull %5) #11
  invoke void @_ZNSt7__cxx1112basic_stringIcSt11char_traitsIcESaIcEEC2EPKcRKS3_(ptr noundef nonnull align 8 dereferenceable(32) %4, ptr noundef nonnull @.str, ptr noundef nonnull align 1 dereferenceable(1) %5)
          to label %8 unwind label %10

8:                                                ; preds = %7
  invoke void @_ZN2cv5errorEiRKNSt7__cxx1112basic_stringIcSt11char_traitsIcESaIcEEEPKcS9_i(i32 noundef -215, ptr noundef nonnull align 8 dereferenceable(32) %4, ptr noundef nonnull @__func__._ZN6cvtest3ocl4perf29checkDeviceMaxMemoryAllocSizeERKN2cv5Size_IiEEii, ptr noundef nonnull @.str.21, i32 noundef 53) #12
          to label %9 unwind label %12

9:                                                ; preds = %8
  unreachable

10:                                               ; preds = %7
  %11 = landingpad { ptr, i32 }
          cleanup
  br label %_ZNSt7__cxx1112basic_stringIcSt11char_traitsIcESaIcEED2Ev.exit

12:                                               ; preds = %8
  %13 = landingpad { ptr, i32 }
          cleanup
  %14 = load ptr, ptr %4, align 8, !tbaa !3
  %15 = getelementptr inbounds nuw i8, ptr %4, i64 16
  %16 = icmp eq ptr %14, %15
  br i1 %16, label %_ZNKSt7__cxx1112basic_stringIcSt11char_traitsIcESaIcEE11_M_is_localEv.exit.thread.i.i, label %_ZNKSt7__cxx1112basic_stringIcSt11char_traitsIcESaIcEE11_M_is_localEv.exit.i.i

_ZNKSt7__cxx1112basic_stringIcSt11char_traitsIcESaIcEE11_M_is_localEv.exit.thread.i.i: ; preds = %12
  %17 = getelementptr inbounds nuw i8, ptr %4, i64 8
  %18 = load i64, ptr %17, align 8, !tbaa !11
  %19 = icmp ult i64 %18, 16
  call void @llvm.assume(i1 %19)
  br label %_ZNSt7__cxx1112basic_stringIcSt11char_traitsIcESaIcEED2Ev.exit

_ZNKSt7__cxx1112basic_stringIcSt11char_traitsIcESaIcEE11_M_is_localEv.exit.i.i: ; preds = %12
  call void @_ZdlPv(ptr noundef %14) #13
  br label %_ZNSt7__cxx1112basic_stringIcSt11char_traitsIcESaIcEED2Ev.exit

_ZNSt7__cxx1112basic_stringIcSt11char_traitsIcESaIcEED2Ev.exit: ; preds = %_ZNKSt7__cxx1112basic_stringIcSt11char_traitsIcESaIcEE11_M_is_localEv.exit.i.i, %_ZNKSt7__cxx1112basic_stringIcSt11char_traitsIcESaIcEE11_M_is_localEv.exit.thread.i.i, %10
  %.pn = phi { ptr, i32 } [ %11, %10 ], [ %13, %_ZNKSt7__cxx1112basic_stringIcSt11char_traitsIcESaIcEE11_M_is_localEv.exit.thread.i.i ], [ %13, %_ZNKSt7__cxx1112basic_stringIcSt11char_traitsIcESaIcEE11_M_is_localEv.exit.i.i ]
  call void @llvm.lifetime.end.p0(i64 1, ptr nonnull %5) #11
  call void @llvm.lifetime.end.p0(i64 32, ptr nonnull %4) #11
  br label %47

20:                                               ; preds = %3
  %21 = tail call noundef zeroext i1 @_ZN2cv3ocl9useOpenCLEv()
  br i1 %21, label %22, label %46

22:                                               ; preds = %20
  %23 = load i32, ptr %0, align 4, !tbaa !12
  %24 = getelementptr inbounds nuw i8, ptr %0, i64 4
  %25 = load i32, ptr %24, align 4, !tbaa !15
  %26 = lshr i32 %1, 3
  %27 = and i32 %26, 511
  %28 = add nuw nsw i32 %27, 1
  %29 = shl i32 %1, 2
  %30 = and i32 %29, 28
  %31 = lshr i32 675553809, %30
  %32 = and i32 %31, 15
  %33 = mul nuw nsw i32 %32, %28
  %34 = mul i32 %33, %23
  %35 = mul i32 %34, %25
  %36 = sext i32 %35 to i64
  %37 = tail call noundef nonnull align 8 dereferenceable(8) ptr @_ZN2cv3ocl6Device10getDefaultEv()
  %38 = zext nneg i32 %2 to i64
  %39 = mul nsw i64 %36, %38
  %40 = tail call noundef i64 @_ZNK2cv3ocl6Device15maxMemAllocSizeEv(ptr noundef nonnull align 8 dereferenceable(8) %37)
  %.not = icmp ult i64 %39, %40
  br i1 %.not, label %46, label %41

41:                                               ; preds = %22
  %42 = tail call ptr @__cxa_allocate_exception(i64 160) #11
  invoke void @_ZN4perf8TestBase21PerfSkipTestExceptionC2Ev(ptr noundef nonnull align 8 dereferenceable(156) %42)
          to label %43 unwind label %44

43:                                               ; preds = %41
  tail call void @__cxa_throw(ptr nonnull %42, ptr nonnull @_ZTIN4perf8TestBase21PerfSkipTestExceptionE, ptr nonnull @_ZN2cv9ExceptionD2Ev) #12
  unreachable

44:                                               ; preds = %41
  %45 = landingpad { ptr, i32 }
          cleanup
  tail call void @__cxa_free_exception(ptr nonnull %42) #11
  br label %47

46:                                               ; preds = %22, %20
  ret void

47:                                               ; preds = %44, %_ZNSt7__cxx1112basic_stringIcSt11char_traitsIcESaIcEED2Ev.exit
  %.pn12 = phi { ptr, i32 } [ %45, %44 ], [ %.pn, %_ZNSt7__cxx1112basic_stringIcSt11char_traitsIcESaIcEED2Ev.exit ]
  resume { ptr, i32 } %.pn12
}